; Function Attrs: mustprogress nofree norecurse nosync nounwind willreturn memory(argmem: read) uwtable
define dso_local noundef i32 @_ZNK7doctest6String4sizeEv(ptr noundef nonnull readonly align 8 captures(none) dereferenceable(24) %0) local_unnamed_addr #17 align 2 {
  %2 = getelementptr inbounds nuw i8, ptr %0, i64 23
  %3 = load i8, ptr %2, align 1, !tbaa !38
  %4 = and i8 %3, 31
  %5 = zext nneg i8 %4 to i32
  %6 = sub nsw i32 23, %5
  %7 = getelementptr inbounds nuw i8, ptr %0, i64 8
  %8 = load i32, ptr %7, align 8
  %9 = icmp slt i8 %3, 0
  %.0 = select i1 %9, i32 %8, i32 %6
  ret i32 %.0
}